target datalayout = "e-m:e-p270:32:32-p271:32:32-p272:64:64-i64:64-i128:128-f80:128-n8:16:32:64-S128"
target triple = "x86_64-pc-linux-gnu"

@work_mem = external global i32, align 4
@hash_mem_multiplier = external global double, align 8

; Function Attrs: inlinehint nounwind uwtable
define internal i32 @pg_leftmost_one_pos32(i32 noundef %0) #3 {
  %2 = alloca i32, align 4
  store i32 %0, ptr %2, align 4
  %3 = load i32, ptr %2, align 4
  %4 = call i32 @llvm.ctlz.i32(i32 %3, i1 true)
  %5 = sub i32 31, %4
  ret i32 %5
}

; Function Attrs: inlinehint nounwind uwtable
define internal i32 @pg_leftmost_one_pos64(i64 noundef %0) #3 {
  %2 = alloca i64, align 8
  store i64 %0, ptr %2, align 8
  %3 = load i64, ptr %2, align 8
  %4 = call i64 @llvm.ctlz.i64(i64 %3, i1 true)
  %5 = trunc i64 %4 to i32
  %6 = sub i32 63, %5
  ret i32 %6
}

; Function Attrs: inlinehint nounwind uwtable
define internal i64 @pg_nextpower2_64(i64 noundef %0) #3 {
  %2 = alloca i64, align 8
  %3 = alloca i64, align 8
  store i64 %0, ptr %3, align 8
  %4 = load i64, ptr %3, align 8
  %5 = load i64, ptr %3, align 8
  %6 = sub i64 %5, 1
  %7 = and i64 %4, %6
  %8 = icmp eq i64 %7, 0
  br i1 %8, label %9, label %11

9:                                                ; preds = %1
  %10 = load i64, ptr %3, align 8
  store i64 %10, ptr %2, align 8
  br label %17

11:                                               ; preds = %1
  %12 = load i64, ptr %3, align 8
  %13 = call i32 @pg_leftmost_one_pos64(i64 noundef %12)
  %14 = add i32 %13, 1
  %15 = zext i32 %14 to i64
  %16 = shl i64 1, %15
  store i64 %16, ptr %2, align 8
  br label %17

17:                                               ; preds = %11, %9
  %18 = load i64, ptr %2, align 8
  ret i64 %18
}

; Function Attrs: inlinehint nounwind uwtable
define internal i32 @pg_nextpower2_32(i32 noundef %0) #3 {
  %2 = alloca i32, align 4
  %3 = alloca i32, align 4
  store i32 %0, ptr %3, align 4
  %4 = load i32, ptr %3, align 4
  %5 = load i32, ptr %3, align 4
  %6 = sub i32 %5, 1
  %7 = and i32 %4, %6
  %8 = icmp eq i32 %7, 0
  br i1 %8, label %9, label %11

9:                                                ; preds = %1
  %10 = load i32, ptr %3, align 4
  store i32 %10, ptr %2, align 4
  br label %16

11:                                               ; preds = %1
  %12 = load i32, ptr %3, align 4
  %13 = call i32 @pg_leftmost_one_pos32(i32 noundef %12)
  %14 = add i32 %13, 1
  %15 = shl i32 1, %14
  store i32 %15, ptr %2, align 4
  br label %16

16:                                               ; preds = %11, %9
  %17 = load i32, ptr %2, align 4
  ret i32 %17
}

; Function Attrs: inlinehint nounwind uwtable
define internal i64 @pg_prevpower2_64(i64 noundef %0) #3 {
  %2 = alloca i64, align 8
  store i64 %0, ptr %2, align 8
  %3 = load i64, ptr %2, align 8
  %4 = call i32 @pg_leftmost_one_pos64(i64 noundef %3)
  %5 = zext i32 %4 to i64
  %6 = shl i64 1, %5
  ret i64 %6
}

; Function Attrs: nounwind uwtable
define dso_local i64 @get_hash_memory_limit() #0 {
  %1 = alloca double, align 8
  call void @llvm.lifetime.start.p0(i64 8, ptr %1) #9
  %2 = load i32, ptr @work_mem, align 4
  %3 = sitofp i32 %2 to double
  %4 = load double, ptr @hash_mem_multiplier, align 8
  %5 = fmul double %3, %4
  %6 = fmul double %5, 1.024000e+03
  store double %6, ptr %1, align 8
  %7 = load double, ptr %1, align 8
  %8 = fcmp olt double %7, 0x43F0000000000000
  br i1 %8, label %9, label %11

9:                                                ; preds = %0
  %10 = load double, ptr %1, align 8
  br label %12

11:                                               ; preds = %0
  br label %12

12:                                               ; preds = %11, %9
  %13 = phi double [ %10, %9 ], [ 0x43F0000000000000, %11 ]
  store double %13, ptr %1, align 8
  %14 = load double, ptr %1, align 8
  %15 = fptoui double %14 to i64
  call void @llvm.lifetime.end.p0(i64 8, ptr %1) #9
  ret i64 %15
}

; Function Attrs: nounwind uwtable
define dso_local void @ExecChooseHashTableSize(double noundef %0, i32 noundef %1, i1 noundef zeroext %2, i1 noundef zeroext %3, i32 noundef %4, ptr noundef %5, ptr noundef %6, ptr noundef %7, ptr noundef %8) #0 {
  %10 = alloca double, align 8
  %11 = alloca i32, align 4
  %12 = alloca i8, align 1
  %13 = alloca i8, align 1
  %14 = alloca i32, align 4
  %15 = alloca ptr, align 8
  %16 = alloca ptr, align 8
  %17 = alloca ptr, align 8
  %18 = alloca ptr, align 8
  %19 = alloca i32, align 4
  %20 = alloca double, align 8
  %21 = alloca i64, align 8
  %22 = alloca i64, align 8
  %23 = alloca i64, align 8
  %24 = alloca i32, align 4
  %25 = alloca i32, align 4
  %26 = alloca double, align 8
  %27 = alloca double, align 8
  %28 = alloca i64, align 8
  %29 = alloca i64, align 8
  %30 = alloca i64, align 8
  %31 = alloca double, align 8
  %32 = alloca i32, align 4
  %33 = alloca i64, align 8
  %34 = alloca i32, align 4
  store double %0, ptr %10, align 8
  store i32 %1, ptr %11, align 4
  %35 = zext i1 %2 to i8
  store i8 %35, ptr %12, align 1
  %36 = zext i1 %3 to i8
  store i8 %36, ptr %13, align 1
  store i32 %4, ptr %14, align 4
  store ptr %5, ptr %15, align 8
  store ptr %6, ptr %16, align 8
  store ptr %7, ptr %17, align 8
  store ptr %8, ptr %18, align 8
  call void @llvm.lifetime.start.p0(i64 4, ptr %19) #9
  call void @llvm.lifetime.start.p0(i64 8, ptr %20) #9
  call void @llvm.lifetime.start.p0(i64 8, ptr %21) #9
  call void @llvm.lifetime.start.p0(i64 8, ptr %22) #9
  call void @llvm.lifetime.start.p0(i64 8, ptr %23) #9
  call void @llvm.lifetime.start.p0(i64 4, ptr %24) #9
  store i32 1, ptr %24, align 4
  call void @llvm.lifetime.start.p0(i64 4, ptr %25) #9
  call void @llvm.lifetime.start.p0(i64 8, ptr %26) #9
  %37 = load double, ptr %10, align 8
  %38 = fcmp ole double %37, 0.000000e+00
  br i1 %38, label %39, label %40

39:                                               ; preds = %9
  store double 1.000000e+03, ptr %10, align 8
  br label %40

40:                                               ; preds = %39, %9
  %41 = load i32, ptr %11, align 4
  %42 = sext i32 %41 to i64
  %43 = add i64 %42, 7
  %44 = and i64 %43, -8
  %45 = add i64 32, %44
  %46 = trunc i64 %45 to i32
  store i32 %46, ptr %19, align 4
  %47 = load double, ptr %10, align 8
  %48 = load i32, ptr %19, align 4
  %49 = sitofp i32 %48 to double
  %50 = fmul double %47, %49
  store double %50, ptr %20, align 8
  %51 = call i64 @get_hash_memory_limit()
  store i64 %51, ptr %21, align 8
  %52 = load i8, ptr %13, align 1, !range !4, !noundef !5
  %53 = trunc i8 %52 to i1
  br i1 %53, label %54, label %70

54:                                               ; preds = %40
  call void @llvm.lifetime.start.p0(i64 8, ptr %27) #9
  %55 = load i64, ptr %21, align 8
  %56 = uitofp i64 %55 to double
  %57 = load i32, ptr %14, align 4
  %58 = add i32 %57, 1
  %59 = sitofp i32 %58 to double
  %60 = fmul double %56, %59
  store double %60, ptr %27, align 8
  %61 = load double, ptr %27, align 8
  %62 = fcmp olt double %61, 0x43F0000000000000
  br i1 %62, label %63, label %65

63:                                               ; preds = %54
  %64 = load double, ptr %27, align 8
  br label %66

65:                                               ; preds = %54
  br label %66

66:                                               ; preds = %65, %63
  %67 = phi double [ %64, %63 ], [ 0x43F0000000000000, %65 ]
  store double %67, ptr %27, align 8
  %68 = load double, ptr %27, align 8
  %69 = fptoui double %68 to i64
  store i64 %69, ptr %21, align 8
  call void @llvm.lifetime.end.p0(i64 8, ptr %27) #9
  br label %70

70:                                               ; preds = %66, %40
  %71 = load i64, ptr %21, align 8
  %72 = load ptr, ptr %15, align 8
  store i64 %71, ptr %72, align 8
  %73 = load i8, ptr %12, align 1, !range !4, !noundef !5
  %74 = trunc i8 %73 to i1
  br i1 %74, label %75, label %106

75:                                               ; preds = %70
  call void @llvm.lifetime.start.p0(i64 8, ptr %28) #9
  call void @llvm.lifetime.start.p0(i64 8, ptr %29) #9
  %76 = load i32, ptr %19, align 4
  %77 = sext i32 %76 to i64
  %78 = add i64 %77, 64
  %79 = add i64 %78, 4
  %80 = add i64 %79, 16
  store i64 %80, ptr %28, align 8
  %81 = load i64, ptr %21, align 8
  %82 = load i64, ptr %28, align 8
  %83 = udiv i64 %81, %82
  store i64 %83, ptr %29, align 8
  %84 = load i64, ptr %29, align 8
  %85 = mul i64 %84, 2
  %86 = udiv i64 %85, 100
  store i64 %86, ptr %29, align 8
  %87 = load i64, ptr %29, align 8
  %88 = icmp ult i64 %87, 2147483647
  br i1 %88, label %89, label %91

89:                                               ; preds = %75
  %90 = load i64, ptr %29, align 8
  br label %92

91:                                               ; preds = %75
  br label %92

92:                                               ; preds = %91, %89
  %93 = phi i64 [ %90, %89 ], [ 2147483647, %91 ]
  store i64 %93, ptr %29, align 8
  %94 = load i64, ptr %29, align 8
  %95 = trunc i64 %94 to i32
  %96 = load ptr, ptr %18, align 8
  store i32 %95, ptr %96, align 4
  %97 = load i64, ptr %29, align 8
  %98 = icmp ugt i64 %97, 0
  br i1 %98, label %99, label %105

99:                                               ; preds = %92
  %100 = load i64, ptr %29, align 8
  %101 = load i64, ptr %28, align 8
  %102 = mul i64 %100, %101
  %103 = load i64, ptr %21, align 8
  %104 = sub i64 %103, %102
  store i64 %104, ptr %21, align 8
  br label %105

105:                                              ; preds = %99, %92
  call void @llvm.lifetime.end.p0(i64 8, ptr %29) #9
  call void @llvm.lifetime.end.p0(i64 8, ptr %28) #9
  br label %108

106:                                              ; preds = %70
  %107 = load ptr, ptr %18, align 8
  store i32 0, ptr %107, align 4
  br label %108

108:                                              ; preds = %106, %105
  %109 = load i64, ptr %21, align 8
  %110 = udiv i64 %109, 8
  store i64 %110, ptr %23, align 8
  %111 = load i64, ptr %23, align 8
  %112 = icmp ult i64 %111, 134217727
  br i1 %112, label %113, label %115

113:                                              ; preds = %108
  %114 = load i64, ptr %23, align 8
  br label %116

115:                                              ; preds = %108
  br label %116

116:                                              ; preds = %115, %113
  %117 = phi i64 [ %114, %113 ], [ 134217727, %115 ]
  store i64 %117, ptr %23, align 8
  %118 = load i64, ptr %23, align 8
  %119 = call i64 @pg_prevpower2_64(i64 noundef %118)
  store i64 %119, ptr %23, align 8
  %120 = load i64, ptr %23, align 8
  %121 = icmp ult i64 %120, 1073741824
  br i1 %121, label %122, label %124

122:                                              ; preds = %116
  %123 = load i64, ptr %23, align 8
  br label %125

124:                                              ; preds = %116
  br label %125

125:                                              ; preds = %124, %122
  %126 = phi i64 [ %123, %122 ], [ 1073741824, %124 ]
  store i64 %126, ptr %23, align 8
  %127 = load double, ptr %10, align 8
  %128 = fdiv double %127, 1.000000e+00
  %129 = call double @llvm.ceil.f64(double %128)
  store double %129, ptr %26, align 8
  %130 = load double, ptr %26, align 8
  %131 = load i64, ptr %23, align 8
  %132 = uitofp i64 %131 to double
  %133 = fcmp olt double %130, %132
  br i1 %133, label %134, label %136

134:                                              ; preds = %125
  %135 = load double, ptr %26, align 8
  br label %139

136:                                              ; preds = %125
  %137 = load i64, ptr %23, align 8
  %138 = uitofp i64 %137 to double
  br label %139

139:                                              ; preds = %136, %134
  %140 = phi double [ %135, %134 ], [ %138, %136 ]
  store double %140, ptr %26, align 8
  %141 = load double, ptr %26, align 8
  %142 = fptosi double %141 to i32
  store i32 %142, ptr %25, align 4
  %143 = load i32, ptr %25, align 4
  %144 = icmp sgt i32 %143, 1024
  br i1 %144, label %145, label %147

145:                                              ; preds = %139
  %146 = load i32, ptr %25, align 4
  br label %148

147:                                              ; preds = %139
  br label %148

148:                                              ; preds = %147, %145
  %149 = phi i32 [ %146, %145 ], [ 1024, %147 ]
  store i32 %149, ptr %25, align 4
  %150 = load i32, ptr %25, align 4
  %151 = call i32 @pg_nextpower2_32(i32 noundef %150)
  store i32 %151, ptr %25, align 4
  %152 = load i32, ptr %25, align 4
  %153 = sext i32 %152 to i64
  %154 = mul i64 8, %153
  store i64 %154, ptr %22, align 8
  %155 = load double, ptr %20, align 8
  %156 = load i64, ptr %22, align 8
  %157 = uitofp i64 %156 to double
  %158 = fadd double %155, %157
  %159 = load i64, ptr %21, align 8
  %160 = uitofp i64 %159 to double
  %161 = fcmp ogt double %158, %160
  br i1 %161, label %162, label %237

162:                                              ; preds = %148
  call void @llvm.lifetime.start.p0(i64 8, ptr %30) #9
  call void @llvm.lifetime.start.p0(i64 8, ptr %31) #9
  call void @llvm.lifetime.start.p0(i64 4, ptr %32) #9
  call void @llvm.lifetime.start.p0(i64 8, ptr %33) #9
  %163 = load i8, ptr %13, align 1, !range !4, !noundef !5
  %164 = trunc i8 %163 to i1
  br i1 %164, label %165, label %175

165:                                              ; preds = %162
  %166 = load double, ptr %10, align 8
  %167 = load i32, ptr %11, align 4
  %168 = load i8, ptr %12, align 1, !range !4, !noundef !5
  %169 = trunc i8 %168 to i1
  %170 = load i32, ptr %14, align 4
  %171 = load ptr, ptr %15, align 8
  %172 = load ptr, ptr %16, align 8
  %173 = load ptr, ptr %17, align 8
  %174 = load ptr, ptr %18, align 8
  call void @ExecChooseHashTableSize(double noundef %166, i32 noundef %167, i1 noundef zeroext %169, i1 noundef zeroext false, i32 noundef %170, ptr noundef %171, ptr noundef %172, ptr noundef %173, ptr noundef %174)
  store i32 1, ptr %34, align 4
  br label %234

175:                                              ; preds = %162
  %176 = load i32, ptr %19, align 4
  %177 = mul i32 %176, 1
  %178 = sext i32 %177 to i64
  %179 = add i64 %178, 8
  store i64 %179, ptr %33, align 8
  %180 = load i64, ptr %21, align 8
  %181 = load i64, ptr %33, align 8
  %182 = icmp ule i64 %180, %181
  br i1 %182, label %183, label %184

183:                                              ; preds = %175
  store i64 1, ptr %30, align 8
  br label %189

184:                                              ; preds = %175
  %185 = load i64, ptr %21, align 8
  %186 = load i64, ptr %33, align 8
  %187 = udiv i64 %185, %186
  %188 = call i64 @pg_nextpower2_64(i64 noundef %187)
  store i64 %188, ptr %30, align 8
  br label %189

189:                                              ; preds = %184, %183
  %190 = load i64, ptr %30, align 8
  %191 = load i64, ptr %23, align 8
  %192 = icmp ult i64 %190, %191
  br i1 %192, label %193, label %195

193:                                              ; preds = %189
  %194 = load i64, ptr %30, align 8
  br label %197

195:                                              ; preds = %189
  %196 = load i64, ptr %23, align 8
  br label %197

197:                                              ; preds = %195, %193
  %198 = phi i64 [ %194, %193 ], [ %196, %195 ]
  store i64 %198, ptr %30, align 8
  %199 = load i64, ptr %30, align 8
  %200 = trunc i64 %199 to i32
  store i32 %200, ptr %25, align 4
  %201 = load i32, ptr %25, align 4
  %202 = call i32 @pg_nextpower2_32(i32 noundef %201)
  store i32 %202, ptr %25, align 4
  %203 = load i32, ptr %25, align 4
  %204 = sext i32 %203 to i64
  %205 = mul i64 %204, 8
  store i64 %205, ptr %22, align 8
  %206 = load double, ptr %20, align 8
  %207 = load i64, ptr %21, align 8
  %208 = load i64, ptr %22, align 8
  %209 = sub i64 %207, %208
  %210 = uitofp i64 %209 to double
  %211 = fdiv double %206, %210
  %212 = call double @llvm.ceil.f64(double %211)
  store double %212, ptr %31, align 8
  %213 = load double, ptr %31, align 8
  %214 = load i64, ptr %23, align 8
  %215 = uitofp i64 %214 to double
  %216 = fcmp olt double %213, %215
  br i1 %216, label %217, label %219

217:                                              ; preds = %197
  %218 = load double, ptr %31, align 8
  br label %222

219:                                              ; preds = %197
  %220 = load i64, ptr %23, align 8
  %221 = uitofp i64 %220 to double
  br label %222

222:                                              ; preds = %219, %217
  %223 = phi double [ %218, %217 ], [ %221, %219 ]
  store double %223, ptr %31, align 8
  %224 = load double, ptr %31, align 8
  %225 = fptosi double %224 to i32
  store i32 %225, ptr %32, align 4
  %226 = load i32, ptr %32, align 4
  %227 = icmp sgt i32 2, %226
  br i1 %227, label %228, label %229

228:                                              ; preds = %222
  br label %231

229:                                              ; preds = %222
  %230 = load i32, ptr %32, align 4
  br label %231

231:                                              ; preds = %229, %228
  %232 = phi i32 [ 2, %228 ], [ %230, %229 ]
  %233 = call i32 @pg_nextpower2_32(i32 noundef %232)
  store i32 %233, ptr %24, align 4
  store i32 0, ptr %34, align 4
  br label %234

234:                                              ; preds = %231, %165
  call void @llvm.lifetime.end.p0(i64 8, ptr %33) #9
  call void @llvm.lifetime.end.p0(i64 4, ptr %32) #9
  call void @llvm.lifetime.end.p0(i64 8, ptr %31) #9
  call void @llvm.lifetime.end.p0(i64 8, ptr %30) #9
  %235 = load i32, ptr %34, align 4
  switch i32 %235, label %242 [
    i32 0, label %236
  ]

236:                                              ; preds = %234
  br label %237

237:                                              ; preds = %236, %148
  %238 = load i32, ptr %25, align 4
  %239 = load ptr, ptr %16, align 8
  store i32 %238, ptr %239, align 4
  %240 = load i32, ptr %24, align 4
  %241 = load ptr, ptr %17, align 8
  store i32 %240, ptr %241, align 4
  store i32 0, ptr %34, align 4
  br label %242

242:                                              ; preds = %237, %234
  call void @llvm.lifetime.end.p0(i64 8, ptr %26) #9
  call void @llvm.lifetime.end.p0(i64 4, ptr %25) #9
  call void @llvm.lifetime.end.p0(i64 4, ptr %24) #9
  call void @llvm.lifetime.end.p0(i64 8, ptr %23) #9
  call void @llvm.lifetime.end.p0(i64 8, ptr %22) #9
  call void @llvm.lifetime.end.p0(i64 8, ptr %21) #9
  call void @llvm.lifetime.end.p0(i64 8, ptr %20) #9
  call void @llvm.lifetime.end.p0(i64 4, ptr %19) #9
  %243 = load i32, ptr %34, align 4
  switch i32 %243, label %245 [
    i32 0, label %244
    i32 1, label %244
  ]

244:                                              ; preds = %242, %242
  ret void

245:                                              ; preds = %242
  unreachable
}