; Function Attrs: nofree norecurse nosync nounwind memory(read, argmem: write, inaccessiblemem: none) uwtable
define dso_local void @ExecChooseHashTableSize(double noundef %0, i32 noundef %1, i1 noundef zeroext %2, i1 noundef zeroext %3, i32 noundef %4, ptr noundef writeonly captures(none) initializes((0, 8)) %5, ptr noundef writeonly captures(none) %6, ptr noundef writeonly captures(none) %7, ptr noundef writeonly captures(none) initializes((0, 4)) %8) local_unnamed_addr #4 {
  %10 = add i32 %1, 7
  %11 = and i32 %10, -8
  %12 = add i32 %11, 32
  %13 = sitofp i32 %12 to double
  %14 = add i32 %4, 1
  %15 = sitofp i32 %14 to double
  %16 = sext i32 %12 to i64
  %17 = add nsw i64 %16, 84
  br label %tailrecurse

tailrecurse:                                      ; preds = %65, %9
  %.tr = phi double [ %0, %9 ], [ %.080, %65 ]
  %.tr98 = phi i1 [ %3, %9 ], [ false, %65 ]
  %18 = fcmp ugt double %.tr, 0.000000e+00
  %.080 = select i1 %18, double %.tr, double 1.000000e+03
  %19 = fmul double %.080, %13
  %20 = load i32, ptr @work_mem, align 4
  %21 = sitofp i32 %20 to double
  %22 = load double, ptr @hash_mem_multiplier, align 8
  %23 = fmul double %22, %21
  %24 = fmul double %23, 1.024000e+03
  %25 = fcmp olt double %24, 0x43F0000000000000
  %26 = select i1 %25, double %24, double 0x43F0000000000000
  %27 = fptoui double %26 to i64
  br i1 %.tr98, label %28, label %34

28:                                               ; preds = %tailrecurse
  %29 = uitofp i64 %27 to double
  %30 = fmul double %15, %29
  %31 = fcmp olt double %30, 0x43F0000000000000
  %32 = select i1 %31, double %30, double 0x43F0000000000000
  %33 = fptoui double %32 to i64
  br label %34

34:                                               ; preds = %28, %tailrecurse
  %.081 = phi i64 [ %33, %28 ], [ %27, %tailrecurse ]
  store i64 %.081, ptr %5, align 8
  br i1 %2, label %35, label %42

35:                                               ; preds = %34
  %36 = udiv i64 %.081, %17
  %37 = udiv i64 %36, 50
  %38 = tail call i64 @llvm.umin.i64(i64 %37, i64 2147483647)
  %39 = trunc nuw nsw i64 %38 to i32
  %.not = icmp samesign ult i64 %36, 50
  %40 = mul nsw i64 %38, %17
  %41 = select i1 %.not, i64 0, i64 %40
  %.1 = sub i64 %.081, %41
  br label %42

42:                                               ; preds = %34, %35
  %.sink = phi i32 [ %39, %35 ], [ 0, %34 ]
  %.2 = phi i64 [ %.1, %35 ], [ %.081, %34 ]
  store i32 %.sink, ptr %8, align 4
  %43 = lshr i64 %.2, 3
  %44 = tail call i64 @llvm.umin.i64(i64 %43, i64 134217727)
  %45 = tail call range(i64 0, 65) i64 @llvm.ctlz.i64(i64 range(i64 0, 2305843009213693952) %44, i1 true)
  %46 = xor i64 %45, 63
  %47 = shl nuw nsw i64 1, %46
  %48 = tail call double @llvm.ceil.f64(double %.080)
  %49 = uitofp nneg i64 %47 to double
  %50 = fcmp olt double %48, %49
  %51 = select i1 %50, double %48, double %49
  %52 = fptosi double %51 to i32
  %53 = tail call i32 @llvm.smax.i32(i32 %52, i32 1024)
  %54 = tail call range(i32 1, 32) i32 @llvm.ctpop.i32(i32 %53)
  %55 = icmp samesign ult i32 %54, 2
  %56 = tail call range(i32 0, 33) i32 @llvm.ctlz.i32(i32 %53, i1 true)
  %57 = xor i32 %56, 31
  %58 = shl nuw i32 2, %57
  %.0.i = select i1 %55, i32 %53, i32 %58
  %59 = sext i32 %.0.i to i64
  %60 = shl nsw i64 %59, 3
  %61 = uitofp i64 %60 to double
  %62 = fadd double %19, %61
  %63 = uitofp i64 %.2 to double
  %64 = fcmp ogt double %62, %63
  br i1 %64, label %65, label %.loopexit

65:                                               ; preds = %42
  br i1 %.tr98, label %tailrecurse, label %66

66:                                               ; preds = %65
  %67 = add nsw i64 %16, 8
  %.not90 = icmp ugt i64 %.2, %67
  br i1 %.not90, label %68, label %75

68:                                               ; preds = %66
  %69 = udiv i64 %.2, %67
  %70 = tail call range(i64 0, 65) i64 @llvm.ctpop.i64(i64 %69)
  %71 = icmp samesign ult i64 %70, 2
  %72 = tail call range(i64 0, 65) i64 @llvm.ctlz.i64(i64 %69, i1 true)
  %73 = sub nuw nsw i64 64, %72
  %74 = shl nuw i64 1, %73
  %.0.i91 = select i1 %71, i64 %69, i64 %74
  br label %75

75:                                               ; preds = %68, %66
  %.082 = phi i64 [ %.0.i91, %68 ], [ 1, %66 ]
  %76 = tail call i64 @llvm.umin.i64(i64 %.082, i64 %47)
  %77 = trunc nuw nsw i64 %76 to i32
  %78 = tail call range(i32 0, 33) i32 @llvm.ctpop.i32(i32 %77)
  %79 = icmp samesign ult i32 %78, 2
  %80 = tail call range(i32 0, 33) i32 @llvm.ctlz.i32(i32 %77, i1 true)
  %81 = xor i32 %80, 31
  %82 = shl nuw nsw i32 2, %81
  %.0.i92 = select i1 %79, i32 %77, i32 %82
  %83 = zext nneg i32 %.0.i92 to i64
  %84 = shl nuw nsw i64 %83, 3
  %85 = sub i64 %.2, %84
  %86 = uitofp i64 %85 to double
  %87 = fdiv double %19, %86
  %88 = tail call double @llvm.ceil.f64(double %87)
  %89 = fcmp olt double %88, %49
  %90 = select i1 %89, double %88, double %49
  %91 = fptosi double %90 to i32
  %92 = tail call i32 @llvm.smax.i32(i32 %91, i32 2)
  %93 = tail call range(i32 1, 32) i32 @llvm.ctpop.i32(i32 %92)
  %94 = icmp samesign ult i32 %93, 2
  %95 = tail call range(i32 0, 33) i32 @llvm.ctlz.i32(i32 %92, i1 true)
  %96 = xor i32 %95, 31
  %97 = shl nuw i32 2, %96
  %.0.i93 = select i1 %94, i32 %92, i32 %97
  br label %.loopexit

.loopexit:                                        ; preds = %42, %75
  %.085 = phi i32 [ %.0.i92, %75 ], [ %.0.i, %42 ]
  %.083 = phi i32 [ %.0.i93, %75 ], [ 1, %42 ]
  store i32 %.085, ptr %6, align 4
  store i32 %.083, ptr %7, align 4
  ret void
}